target datalayout = "e-m:e-p270:32:32-p271:32:32-p272:64:64-i64:64-i128:128-f80:128-n8:16:32:64-S128"
target triple = "x86_64-pc-linux-gnu"

%"class.WasmEdge::ValType" = type { %union.anon }
%union.anon = type { %struct.anon }
%struct.anon = type { i8, i8, i8, i8, i32 }
%struct.WasmEdge_Limit = type { i8, i8, i32, i32 }
%"class.WasmEdge::AST::TableType" = type { %"class.WasmEdge::ValType", %"class.WasmEdge::AST::Limit" }
%"class.WasmEdge::AST::Limit" = type { i8, i32, i32 }

; Function Attrs: mustprogress nounwind uwtable
define linkonce_odr hidden noundef i32 @_ZNK8WasmEdge3AST5Limit6getMaxEv(ptr noundef nonnull align 4 dereferenceable(12) %0) #0 comdat align 2 {
  %2 = alloca ptr, align 8
  store ptr %0, ptr %2, align 8
  %3 = load ptr, ptr %2, align 8
  %4 = getelementptr inbounds %"class.WasmEdge::AST::Limit", ptr %3, i32 0, i32 2
  %5 = load i32, ptr %4, align 4
  ret i32 %5
}

; Function Attrs: mustprogress nounwind uwtable
define linkonce_odr hidden noundef i32 @_ZNK8WasmEdge3AST5Limit6getMinEv(ptr noundef nonnull align 4 dereferenceable(12) %0) #0 comdat align 2 {
  %2 = alloca ptr, align 8
  store ptr %0, ptr %2, align 8
  %3 = load ptr, ptr %2, align 8
  %4 = getelementptr inbounds %"class.WasmEdge::AST::Limit", ptr %3, i32 0, i32 1
  %5 = load i32, ptr %4, align 4
  ret i32 %5
}

; Function Attrs: mustprogress nounwind uwtable
define linkonce_odr hidden noundef zeroext i1 @_ZNK8WasmEdge3AST5Limit8isSharedEv(ptr noundef nonnull align 4 dereferenceable(12) %0) #0 comdat align 2 {
  %2 = alloca ptr, align 8
  store ptr %0, ptr %2, align 8
  %3 = load ptr, ptr %2, align 8
  %4 = getelementptr inbounds %"class.WasmEdge::AST::Limit", ptr %3, i32 0, i32 0
  %5 = load i8, ptr %4, align 4
  %6 = icmp eq i8 %5, 3
  ret i1 %6
}

; Function Attrs: mustprogress nounwind uwtable
define linkonce_odr hidden noundef zeroext i1 @_ZNK8WasmEdge3AST5Limit6hasMaxEv(ptr noundef nonnull align 4 dereferenceable(12) %0) #0 comdat align 2 {
  %2 = alloca ptr, align 8
  store ptr %0, ptr %2, align 8
  %3 = load ptr, ptr %2, align 8
  %4 = getelementptr inbounds %"class.WasmEdge::AST::Limit", ptr %3, i32 0, i32 0
  %5 = load i8, ptr %4, align 4
  %6 = icmp eq i8 %5, 1
  br i1 %6, label %11, label %7

7:                                                ; preds = %1
  %8 = getelementptr inbounds %"class.WasmEdge::AST::Limit", ptr %3, i32 0, i32 0
  %9 = load i8, ptr %8, align 4
  %10 = icmp eq i8 %9, 3
  br label %11

11:                                               ; preds = %7, %1
  %12 = phi i1 [ true, %1 ], [ %10, %7 ]
  ret i1 %12
}

; Function Attrs: mustprogress nounwind uwtable
define linkonce_odr hidden noundef nonnull align 4 dereferenceable(12) ptr @_ZNK8WasmEdge3AST9TableType8getLimitEv(ptr noundef nonnull align 4 dereferenceable(20) %0) #0 comdat align 2 {
  %2 = alloca ptr, align 8
  store ptr %0, ptr %2, align 8
  %3 = load ptr, ptr %2, align 8
  %4 = getelementptr inbounds %"class.WasmEdge::AST::TableType", ptr %3, i32 0, i32 1
  ret ptr %4
}

; Function Attrs: mustprogress nounwind uwtable
define internal noundef ptr @_ZN12_GLOBAL__N_114fromTabTypeCxtEPK25WasmEdge_TableTypeContext(ptr noundef %0) #0 {
  %2 = alloca ptr, align 8
  store ptr %0, ptr %2, align 8
  %3 = load ptr, ptr %2, align 8
  ret ptr %3
}

; Function Attrs: mustprogress nounwind uwtable
define { i64, i32 } @WasmEdge_TableTypeGetLimit(ptr noundef %0) #0 {
  %2 = alloca %struct.WasmEdge_Limit, align 4
  %3 = alloca ptr, align 8
  %4 = alloca ptr, align 8
  %5 = alloca { i64, i32 }, align 8
  store ptr %0, ptr %3, align 8
  %6 = load ptr, ptr %3, align 8
  %7 = icmp ne ptr %6, null
  br i1 %7, label %8, label %26

8:                                                ; preds = %1
  %9 = load ptr, ptr %3, align 8
  %10 = call noundef ptr @_ZN12_GLOBAL__N_114fromTabTypeCxtEPK25WasmEdge_TableTypeContext(ptr noundef %9) #18
  %11 = call noundef nonnull align 4 dereferenceable(12) ptr @_ZNK8WasmEdge3AST9TableType8getLimitEv(ptr noundef nonnull align 4 dereferenceable(20) %10) #18
  store ptr %11, ptr %4, align 8
  %12 = getelementptr inbounds %struct.WasmEdge_Limit, ptr %2, i32 0, i32 0
  %13 = load ptr, ptr %4, align 8
  %14 = call noundef zeroext i1 @_ZNK8WasmEdge3AST5Limit6hasMaxEv(ptr noundef nonnull align 4 dereferenceable(12) %13) #18
  %15 = zext i1 %14 to i8
  store i8 %15, ptr %12, align 4
  %16 = getelementptr inbounds %struct.WasmEdge_Limit, ptr %2, i32 0, i32 1
  %17 = load ptr, ptr %4, align 8
  %18 = call noundef zeroext i1 @_ZNK8WasmEdge3AST5Limit8isSharedEv(ptr noundef nonnull align 4 dereferenceable(12) %17) #18
  %19 = zext i1 %18 to i8
  store i8 %19, ptr %16, align 1
  %20 = getelementptr inbounds %struct.WasmEdge_Limit, ptr %2, i32 0, i32 2
  %21 = load ptr, ptr %4, align 8
  %22 = call noundef i32 @_ZNK8WasmEdge3AST5Limit6getMinEv(ptr noundef nonnull align 4 dereferenceable(12) %21) #18
  store i32 %22, ptr %20, align 4
  %23 = getelementptr inbounds %struct.WasmEdge_Limit, ptr %2, i32 0, i32 3
  %24 = load ptr, ptr %4, align 8
  %25 = call noundef i32 @_ZNK8WasmEdge3AST5Limit6getMaxEv(ptr noundef nonnull align 4 dereferenceable(12) %24) #18
  store i32 %25, ptr %23, align 4
  br label %31

26:                                               ; preds = %1
  %27 = getelementptr inbounds %struct.WasmEdge_Limit, ptr %2, i32 0, i32 0
  store i8 0, ptr %27, align 4
  %28 = getelementptr inbounds %struct.WasmEdge_Limit, ptr %2, i32 0, i32 1
  store i8 0, ptr %28, align 1
  %29 = getelementptr inbounds %struct.WasmEdge_Limit, ptr %2, i32 0, i32 2
  store i32 0, ptr %29, align 4
  %30 = getelementptr inbounds %struct.WasmEdge_Limit, ptr %2, i32 0, i32 3
  store i32 0, ptr %30, align 4
  br label %31

31:                                               ; preds = %26, %8
  call void @llvm.memcpy.p0.p0.i64(ptr align 8 %5, ptr align 4 %2, i64 12, i1 false)
  %32 = load { i64, i32 }, ptr %5, align 8
  ret { i64, i32 } %32
}