; Function Attrs: mustprogress nofree norecurse nosync nounwind willreturn memory(argmem: read) uwtable
define { i64, i32 } @WasmEdge_TableTypeGetLimit(ptr noundef readonly %0) local_unnamed_addr #4 {
  %.not = icmp eq ptr %0, null
  br i1 %.not, label %17, label %2

2:                                                ; preds = %1
  %3 = getelementptr inbounds i8, ptr %0, i64 8
  %4 = load i8, ptr %3, align 4
  %5 = and i8 %4, -3
  %spec.select.i = icmp eq i8 %5, 1
  %6 = icmp eq i8 %4, 3
  %7 = getelementptr inbounds i8, ptr %0, i64 12
  %8 = load i32, ptr %7, align 4
  %9 = getelementptr inbounds i8, ptr %0, i64 16
  %10 = load i32, ptr %9, align 4
  %11 = zext i32 %8 to i64
  %12 = shl nuw i64 %11, 32
  %13 = select i1 %6, i64 256, i64 0
  %14 = or disjoint i64 %12, %13
  %15 = zext i1 %spec.select.i to i64
  %16 = or disjoint i64 %14, %15
  br label %17

17:                                               ; preds = %1, %2
  %.sroa.7.0 = phi i32 [ %10, %2 ], [ 0, %1 ]
  %.sroa.06.0.insert.insert = phi i64 [ %16, %2 ], [ 0, %1 ]
  %.fca.0.insert = insertvalue { i64, i32 } poison, i64 %.sroa.06.0.insert.insert, 0
  %.fca.1.insert = insertvalue { i64, i32 } %.fca.0.insert, i32 %.sroa.7.0, 1
  ret { i64, i32 } %.fca.1.insert
}